target datalayout = "e-m:e-p270:32:32-p271:32:32-p272:64:64-i64:64-i128:128-f80:128-n8:16:32:64-S128"
target triple = "x86_64-pc-linux-gnu"

%"struct.std::_Rb_tree_header" = type { %"struct.std::_Rb_tree_node_base", i64 }
%"struct.std::_Rb_tree_node_base" = type { i32, ptr, ptr, ptr }
%class.aiVector3t = type { float, float, float }
%"class.std::__shared_count" = type { ptr }
%"class.std::shared_ptr" = type { %"class.std::__shared_ptr" }
%"class.std::__shared_ptr" = type { ptr, %"class.std::__shared_count" }
%struct.aiColor3D = type { float, float, float }
%"class.Assimp::FBX::Property" = type { ptr }
%"class.Assimp::FBX::TypedProperty.188" = type <{ %"class.Assimp::FBX::Property", %class.aiVector3t, [4 x i8] }>
%"class.Assimp::FBX::PropertyTable" = type { %"class.std::map.157", %"class.std::map.162", %"class.std::shared_ptr", ptr }
%"class.std::map.157" = type { %"class.std::_Rb_tree.158" }
%"class.std::_Rb_tree.158" = type { %"struct.std::_Rb_tree<std::__cxx11::basic_string<char>, std::pair<const std::__cxx11::basic_string<char>, const Assimp::FBX::Element *>, std::_Select1st<std::pair<const std::__cxx11::basic_string<char>, const Assimp::FBX::Element *>>, std::less<std::__cxx11::basic_string<char>>>::_Rb_tree_impl" }
%"struct.std::_Rb_tree<std::__cxx11::basic_string<char>, std::pair<const std::__cxx11::basic_string<char>, const Assimp::FBX::Element *>, std::_Select1st<std::pair<const std::__cxx11::basic_string<char>, const Assimp::FBX::Element *>>, std::less<std::__cxx11::basic_string<char>>>::_Rb_tree_impl" = type { [8 x i8], %"struct.std::_Rb_tree_header" }
%"class.std::map.162" = type { %"class.std::_Rb_tree.163" }
%"class.std::_Rb_tree.163" = type { %"struct.std::_Rb_tree<std::__cxx11::basic_string<char>, std::pair<const std::__cxx11::basic_string<char>, const Assimp::FBX::Property *>, std::_Select1st<std::pair<const std::__cxx11::basic_string<char>, const Assimp::FBX::Property *>>, std::less<std::__cxx11::basic_string<char>>>::_Rb_tree_impl" }
%"struct.std::_Rb_tree<std::__cxx11::basic_string<char>, std::pair<const std::__cxx11::basic_string<char>, const Assimp::FBX::Property *>, std::_Select1st<std::pair<const std::__cxx11::basic_string<char>, const Assimp::FBX::Property *>>, std::less<std::__cxx11::basic_string<char>>>::_Rb_tree_impl" = type { [8 x i8], %"struct.std::_Rb_tree_header" }

@_ZTIN6Assimp3FBX8PropertyE = linkonce_odr hidden constant { ptr, ptr } { ptr getelementptr inbounds (ptr, ptr @_ZTVN10__cxxabiv117__class_type_infoE, i64 2), ptr @_ZTSN6Assimp3FBX8PropertyE }, comdat, align 8
@_ZTIN6Assimp3FBX13TypedPropertyI10aiVector3tIfEEE = linkonce_odr hidden constant { ptr, ptr, ptr } { ptr getelementptr inbounds (ptr, ptr @_ZTVN10__cxxabiv120__si_class_type_infoE, i64 2), ptr @_ZTSN6Assimp3FBX13TypedPropertyI10aiVector3tIfEEE, ptr @_ZTIN6Assimp3FBX8PropertyE }, comdat, align 8

; Function Attrs: mustprogress nounwind uwtable
define linkonce_odr hidden noundef ptr @_ZNKSt12__shared_ptrIKN6Assimp3FBX13PropertyTableELN9__gnu_cxx12_Lock_policyE2EE3getEv(ptr noundef nonnull align 8 dereferenceable(16) %0) #3 comdat align 2 {
  %2 = alloca ptr, align 8
  store ptr %0, ptr %2, align 8
  %3 = load ptr, ptr %2, align 8
  %4 = getelementptr inbounds nuw %"class.std::__shared_ptr", ptr %3, i32 0, i32 0
  %5 = load ptr, ptr %4, align 8
  ret ptr %5
}

; Function Attrs: mustprogress nounwind uwtable
define linkonce_odr hidden noundef nonnull align 4 dereferenceable(12) ptr @_ZNK6Assimp3FBX13TypedPropertyI10aiVector3tIfEE5ValueEv(ptr noundef nonnull align 8 dereferenceable(20) %0) #3 comdat align 2 {
  %2 = alloca ptr, align 8
  store ptr %0, ptr %2, align 8
  %3 = load ptr, ptr %2, align 8
  %4 = getelementptr inbounds nuw %"class.Assimp::FBX::TypedProperty.188", ptr %3, i32 0, i32 1
  ret ptr %4
}

; Function Attrs: mustprogress nounwind uwtable
define linkonce_odr hidden noundef ptr @_ZNK6Assimp3FBX8Property2AsINS0_13TypedPropertyI10aiVector3tIfEEEEEPKT_v(ptr noundef nonnull align 8 dereferenceable(8) %0) #3 comdat align 2 {
  %2 = alloca ptr, align 8
  store ptr %0, ptr %2, align 8
  %3 = load ptr, ptr %2, align 8
  %4 = icmp eq ptr %3, null
  br i1 %4, label %7, label %5

5:                                                ; preds = %1
  %6 = call ptr @__dynamic_cast(ptr %3, ptr @_ZTIN6Assimp3FBX8PropertyE, ptr @_ZTIN6Assimp3FBX13TypedPropertyI10aiVector3tIfEEE, i64 0) #25
  br label %8

7:                                                ; preds = %1
  br label %8

8:                                                ; preds = %7, %5
  %9 = phi ptr [ %6, %5 ], [ null, %7 ]
  ret ptr %9
}

; Function Attrs: mustprogress nounwind uwtable
define linkonce_odr hidden noundef ptr @_ZNK6Assimp3FBX13PropertyTable13TemplatePropsEv(ptr noundef nonnull align 8 dereferenceable(120) %0) #3 comdat align 2 {
  %2 = alloca ptr, align 8
  store ptr %0, ptr %2, align 8
  %3 = load ptr, ptr %2, align 8
  %4 = getelementptr inbounds nuw %"class.Assimp::FBX::PropertyTable", ptr %3, i32 0, i32 2
  %5 = call noundef ptr @_ZNKSt12__shared_ptrIKN6Assimp3FBX13PropertyTableELN9__gnu_cxx12_Lock_policyE2EE3getEv(ptr noundef nonnull align 8 dereferenceable(16) %4) #25
  ret ptr %5
}

; Function Attrs: mustprogress nounwind uwtable
define linkonce_odr hidden void @_ZN10aiVector3tIfEC2Ev(ptr noundef nonnull align 4 dereferenceable(12) %0) unnamed_addr #3 comdat align 2 {
  %2 = alloca ptr, align 8
  store ptr %0, ptr %2, align 8
  %3 = load ptr, ptr %2, align 8
  %4 = getelementptr inbounds nuw %class.aiVector3t, ptr %3, i32 0, i32 0
  store float 0.000000e+00, ptr %4, align 4
  %5 = getelementptr inbounds nuw %class.aiVector3t, ptr %3, i32 0, i32 1
  store float 0.000000e+00, ptr %5, align 4
  %6 = getelementptr inbounds nuw %class.aiVector3t, ptr %3, i32 0, i32 2
  store float 0.000000e+00, ptr %6, align 4
  ret void
}

; Function Attrs: mustprogress nounwind uwtable
define linkonce_odr hidden void @_ZN9aiColor3DC2Efff(ptr noundef nonnull align 4 dereferenceable(12) %0, float noundef %1, float noundef %2, float noundef %3) unnamed_addr #3 comdat align 2 {
  %5 = alloca ptr, align 8
  %6 = alloca float, align 4
  %7 = alloca float, align 4
  %8 = alloca float, align 4
  store ptr %0, ptr %5, align 8
  store float %1, ptr %6, align 4
  store float %2, ptr %7, align 4
  store float %3, ptr %8, align 4
  %9 = load ptr, ptr %5, align 8
  %10 = getelementptr inbounds nuw %struct.aiColor3D, ptr %9, i32 0, i32 0
  %11 = load float, ptr %6, align 4
  store float %11, ptr %10, align 4
  %12 = getelementptr inbounds nuw %struct.aiColor3D, ptr %9, i32 0, i32 1
  %13 = load float, ptr %7, align 4
  store float %13, ptr %12, align 4
  %14 = getelementptr inbounds nuw %struct.aiColor3D, ptr %9, i32 0, i32 2
  %15 = load float, ptr %8, align 4
  store float %15, ptr %14, align 4
  ret void
}

; Function Attrs: inlinehint mustprogress uwtable
define linkonce_odr hidden { <2 x float>, float } @_ZN6Assimp3FBX11PropertyGetI10aiVector3tIfEEET_RKNS0_13PropertyTableERKNSt7__cxx1112basic_stringIcSt11char_traitsIcESaIcEEERbb(ptr noundef nonnull align 8 dereferenceable(120) %0, ptr noundef nonnull align 8 dereferenceable(32) %1, ptr noundef nonnull align 1 dereferenceable(1) %2, i1 noundef zeroext %3) #13 comdat {
  %5 = alloca %class.aiVector3t, align 4
  %6 = alloca ptr, align 8
  %7 = alloca ptr, align 8
  %8 = alloca ptr, align 8
  %9 = alloca i8, align 1
  %10 = alloca ptr, align 8
  %11 = alloca i32, align 4
  %12 = alloca ptr, align 8
  %13 = alloca ptr, align 8
  %14 = alloca { <2 x float>, float }, align 8
  store ptr %0, ptr %6, align 8
  store ptr %1, ptr %7, align 8
  store ptr %2, ptr %8, align 8
  %15 = zext i1 %3 to i8
  store i8 %15, ptr %9, align 1
  call void @llvm.lifetime.start.p0(i64 8, ptr %10) #25
  %16 = load ptr, ptr %6, align 8
  %17 = load ptr, ptr %7, align 8
  %18 = call noundef ptr @_ZNK6Assimp3FBX13PropertyTable3GetERKNSt7__cxx1112basic_stringIcSt11char_traitsIcESaIcEEE(ptr noundef nonnull align 8 dereferenceable(120) %16, ptr noundef nonnull align 8 dereferenceable(32) %17)
  store ptr %18, ptr %10, align 8
  %19 = load ptr, ptr %10, align 8
  %20 = icmp eq ptr null, %19
  br i1 %20, label %21, label %45

21:                                               ; preds = %4
  %22 = load i8, ptr %9, align 1, !range !3, !noundef !4
  %23 = trunc i8 %22 to i1
  br i1 %23, label %26, label %24

24:                                               ; preds = %21
  %25 = load ptr, ptr %8, align 8
  store i8 0, ptr %25, align 1
  call void @_ZN10aiVector3tIfEC2Ev(ptr noundef nonnull align 4 dereferenceable(12) %5) #25
  store i32 1, ptr %11, align 4
  br label %57

26:                                               ; preds = %21
  call void @llvm.lifetime.start.p0(i64 8, ptr %12) #25
  %27 = load ptr, ptr %6, align 8
  %28 = call noundef ptr @_ZNK6Assimp3FBX13PropertyTable13TemplatePropsEv(ptr noundef nonnull align 8 dereferenceable(120) %27)
  store ptr %28, ptr %12, align 8
  %29 = load ptr, ptr %12, align 8
  %30 = icmp eq ptr null, %29
  br i1 %30, label %31, label %33

31:                                               ; preds = %26
  %32 = load ptr, ptr %8, align 8
  store i8 0, ptr %32, align 1
  call void @_ZN10aiVector3tIfEC2Ev(ptr noundef nonnull align 4 dereferenceable(12) %5) #25
  store i32 1, ptr %11, align 4
  br label %42

33:                                               ; preds = %26
  %34 = load ptr, ptr %12, align 8
  %35 = load ptr, ptr %7, align 8
  %36 = call noundef ptr @_ZNK6Assimp3FBX13PropertyTable3GetERKNSt7__cxx1112basic_stringIcSt11char_traitsIcESaIcEEE(ptr noundef nonnull align 8 dereferenceable(120) %34, ptr noundef nonnull align 8 dereferenceable(32) %35)
  store ptr %36, ptr %10, align 8
  %37 = load ptr, ptr %10, align 8
  %38 = icmp eq ptr null, %37
  br i1 %38, label %39, label %41

39:                                               ; preds = %33
  %40 = load ptr, ptr %8, align 8
  store i8 0, ptr %40, align 1
  call void @_ZN10aiVector3tIfEC2Ev(ptr noundef nonnull align 4 dereferenceable(12) %5) #25
  store i32 1, ptr %11, align 4
  br label %42

41:                                               ; preds = %33
  store i32 0, ptr %11, align 4
  br label %42

42:                                               ; preds = %41, %39, %31
  call void @llvm.lifetime.end.p0(i64 8, ptr %12) #25
  %43 = load i32, ptr %11, align 4
  switch i32 %43, label %57 [
    i32 0, label %44
  ]

44:                                               ; preds = %42
  br label %45

45:                                               ; preds = %44, %4
  call void @llvm.lifetime.start.p0(i64 8, ptr %13) #25
  %46 = load ptr, ptr %10, align 8
  %47 = call noundef ptr @_ZNK6Assimp3FBX8Property2AsINS0_13TypedPropertyI10aiVector3tIfEEEEEPKT_v(ptr noundef nonnull align 8 dereferenceable(8) %46)
  store ptr %47, ptr %13, align 8
  %48 = load ptr, ptr %13, align 8
  %49 = icmp eq ptr null, %48
  br i1 %49, label %50, label %52

50:                                               ; preds = %45
  %51 = load ptr, ptr %8, align 8
  store i8 0, ptr %51, align 1
  call void @_ZN10aiVector3tIfEC2Ev(ptr noundef nonnull align 4 dereferenceable(12) %5) #25
  store i32 1, ptr %11, align 4
  br label %56

52:                                               ; preds = %45
  %53 = load ptr, ptr %8, align 8
  store i8 1, ptr %53, align 1
  %54 = load ptr, ptr %13, align 8
  %55 = call noundef nonnull align 4 dereferenceable(12) ptr @_ZNK6Assimp3FBX13TypedPropertyI10aiVector3tIfEE5ValueEv(ptr noundef nonnull align 8 dereferenceable(20) %54)
  call void @llvm.memcpy.p0.p0.i64(ptr align 4 %5, ptr align 4 %55, i64 12, i1 false)
  store i32 1, ptr %11, align 4
  br label %56

56:                                               ; preds = %52, %50
  call void @llvm.lifetime.end.p0(i64 8, ptr %13) #25
  br label %57

57:                                               ; preds = %56, %42, %24
  call void @llvm.lifetime.end.p0(i64 8, ptr %10) #25
  call void @llvm.memcpy.p0.p0.i64(ptr align 8 %14, ptr align 4 %5, i64 12, i1 false)
  %58 = load { <2 x float>, float }, ptr %14, align 8
  ret { <2 x float>, float } %58
}

; Function Attrs: mustprogress uwtable
define hidden void @_ZN6Assimp3FBX12FBXConverter16GetColorPropertyERKNS0_13PropertyTableERKNSt7__cxx1112basic_stringIcSt11char_traitsIcESaIcEEERbb(ptr dead_on_unwind noalias writable sret(%struct.aiColor3D) align 4 %0, ptr noundef nonnull align 8 dereferenceable(489) %1, ptr noundef nonnull align 8 dereferenceable(120) %2, ptr noundef nonnull align 8 dereferenceable(32) %3, ptr noundef nonnull align 1 dereferenceable(1) %4, i1 noundef zeroext %5) #7 align 2 {
  %7 = alloca ptr, align 8
  %8 = alloca ptr, align 8
  %9 = alloca ptr, align 8
  %10 = alloca ptr, align 8
  %11 = alloca ptr, align 8
  %12 = alloca i8, align 1
  %13 = alloca i8, align 1
  %14 = alloca ptr, align 8
  %15 = alloca %class.aiVector3t, align 4
  %16 = alloca { <2 x float>, float }, align 8
  %17 = alloca i32, align 4
  store ptr %0, ptr %7, align 8
  store ptr %1, ptr %8, align 8
  store ptr %2, ptr %9, align 8
  store ptr %3, ptr %10, align 8
  store ptr %4, ptr %11, align 8
  %18 = zext i1 %5 to i8
  store i8 %18, ptr %12, align 1
  %19 = load ptr, ptr %11, align 8
  store i8 1, ptr %19, align 1
  call void @llvm.lifetime.start.p0(i64 1, ptr %13) #25
  call void @llvm.lifetime.start.p0(i64 8, ptr %14) #25
  call void @llvm.lifetime.start.p0(i64 12, ptr %15) #25
  %20 = load ptr, ptr %9, align 8
  %21 = load ptr, ptr %10, align 8
  %22 = load i8, ptr %12, align 1, !range !3, !noundef !4
  %23 = trunc i8 %22 to i1
  %24 = call { <2 x float>, float } @_ZN6Assimp3FBX11PropertyGetI10aiVector3tIfEEET_RKNS0_13PropertyTableERKNSt7__cxx1112basic_stringIcSt11char_traitsIcESaIcEEERbb(ptr noundef nonnull align 8 dereferenceable(120) %20, ptr noundef nonnull align 8 dereferenceable(32) %21, ptr noundef nonnull align 1 dereferenceable(1) %13, i1 noundef zeroext %23)
  store { <2 x float>, float } %24, ptr %16, align 8
  call void @llvm.memcpy.p0.p0.i64(ptr align 4 %15, ptr align 8 %16, i64 12, i1 false)
  store ptr %15, ptr %14, align 8
  %25 = load i8, ptr %13, align 1, !range !3, !noundef !4
  %26 = trunc i8 %25 to i1
  br i1 %26, label %29, label %27

27:                                               ; preds = %6
  %28 = load ptr, ptr %11, align 8
  store i8 0, ptr %28, align 1
  call void @_ZN9aiColor3DC2Efff(ptr noundef nonnull align 4 dereferenceable(12) %0, float noundef 0.000000e+00, float noundef 0.000000e+00, float noundef 0.000000e+00)
  store i32 1, ptr %17, align 4
  br label %39

29:                                               ; preds = %6
  %30 = load ptr, ptr %14, align 8
  %31 = getelementptr inbounds nuw %class.aiVector3t, ptr %30, i32 0, i32 0
  %32 = load float, ptr %31, align 4
  %33 = load ptr, ptr %14, align 8
  %34 = getelementptr inbounds nuw %class.aiVector3t, ptr %33, i32 0, i32 1
  %35 = load float, ptr %34, align 4
  %36 = load ptr, ptr %14, align 8
  %37 = getelementptr inbounds nuw %class.aiVector3t, ptr %36, i32 0, i32 2
  %38 = load float, ptr %37, align 4
  call void @_ZN9aiColor3DC2Efff(ptr noundef nonnull align 4 dereferenceable(12) %0, float noundef %32, float noundef %35, float noundef %38)
  store i32 1, ptr %17, align 4
  br label %39

39:                                               ; preds = %29, %27
  call void @llvm.lifetime.end.p0(i64 12, ptr %15) #25
  call void @llvm.lifetime.end.p0(i64 8, ptr %14) #25
  call void @llvm.lifetime.end.p0(i64 1, ptr %13) #25
  ret void
}