; Function Attrs: mustprogress uwtable
define hidden void @_ZN6Assimp3FBX12FBXConverter16GetColorPropertyERKNS0_13PropertyTableERKNSt7__cxx1112basic_stringIcSt11char_traitsIcESaIcEEERbb(ptr dead_on_unwind noalias writable writeonly sret(%struct.aiColor3D) align 4 captures(none) initializes((0, 12)) %0, ptr noundef nonnull readnone align 8 captures(none) dereferenceable(489) %1, ptr noundef nonnull align 8 dereferenceable(120) %2, ptr noundef nonnull align 8 dereferenceable(32) %3, ptr noundef nonnull writeonly align 1 captures(none) dereferenceable(1) initializes((0, 1)) %4, i1 noundef zeroext %5) local_unnamed_addr #5 align 2 {
  store i8 1, ptr %4, align 1
  %7 = tail call noundef ptr @_ZNK6Assimp3FBX13PropertyTable3GetERKNSt7__cxx1112basic_stringIcSt11char_traitsIcESaIcEEE(ptr noundef nonnull align 8 dereferenceable(120) %2, ptr noundef nonnull align 8 dereferenceable(32) %3)
  %8 = icmp eq ptr %7, null
  br i1 %8, label %9, label %17

9:                                                ; preds = %6
  br i1 %5, label %10, label %20

10:                                               ; preds = %9
  %11 = getelementptr inbounds nuw i8, ptr %2, i64 96
  %12 = load ptr, ptr %11, align 8
  %13 = icmp eq ptr %12, null
  br i1 %13, label %20, label %14

14:                                               ; preds = %10
  %15 = tail call noundef ptr @_ZNK6Assimp3FBX13PropertyTable3GetERKNSt7__cxx1112basic_stringIcSt11char_traitsIcESaIcEEE(ptr noundef nonnull align 8 dereferenceable(120) %12, ptr noundef nonnull align 8 dereferenceable(32) %3)
  %16 = icmp eq ptr %15, null
  br i1 %16, label %20, label %17

17:                                               ; preds = %14, %6
  %.0.i = phi ptr [ %7, %6 ], [ %15, %14 ]
  %18 = tail call noundef ptr @__dynamic_cast(ptr nonnull align 8 dereferenceable(8) %.0.i, ptr nonnull @_ZTIN6Assimp3FBX8PropertyE, ptr nonnull @_ZTIN6Assimp3FBX13TypedPropertyI10aiVector3tIfEEE, i64 0) #28
  %19 = icmp eq ptr %18, null
  br i1 %19, label %20, label %21

20:                                               ; preds = %9, %10, %14, %17
  store i8 0, ptr %4, align 1
  br label %23

21:                                               ; preds = %17
  %22 = getelementptr inbounds nuw i8, ptr %18, i64 8
  %.sroa.0.0.copyload31.i = load <2 x float>, ptr %22, align 4
  %.sroa.10.0..sroa_idx.i = getelementptr inbounds nuw i8, ptr %18, i64 16
  %.sroa.10.0.copyload.i = load float, ptr %.sroa.10.0..sroa_idx.i, align 4
  %.sroa.0.0.vec.extract = extractelement <2 x float> %.sroa.0.0.copyload31.i, i64 0
  %.sroa.0.4.vec.extract = extractelement <2 x float> %.sroa.0.0.copyload31.i, i64 1
  br label %23

23:                                               ; preds = %21, %20
  %.sroa.0.0.vec.extract.sink = phi float [ %.sroa.0.0.vec.extract, %21 ], [ 0.000000e+00, %20 ]
  %.sroa.0.4.vec.extract.sink = phi float [ %.sroa.0.4.vec.extract, %21 ], [ 0.000000e+00, %20 ]
  %.sroa.10.0.copyload.i.sink = phi float [ %.sroa.10.0.copyload.i, %21 ], [ 0.000000e+00, %20 ]
  store float %.sroa.0.0.vec.extract.sink, ptr %0, align 4
  %24 = getelementptr inbounds nuw i8, ptr %0, i64 4
  store float %.sroa.0.4.vec.extract.sink, ptr %24, align 4
  %25 = getelementptr inbounds nuw i8, ptr %0, i64 8
  store float %.sroa.10.0.copyload.i.sink, ptr %25, align 4
  ret void
}